target datalayout = "e-m:e-p270:32:32-p271:32:32-p272:64:64-i64:64-i128:128-f80:128-n8:16:32:64-S128"
target triple = "x86_64-pc-linux-gnu"

@.str.84 = private unnamed_addr constant [3 x i8] c"wb\00", align 1

; Function Attrs: mustprogress uwtable
define internal noundef ptr @_ZL12stbiw__fopenPKcS0_(ptr noundef %0, ptr noundef %1) #2 {
  %3 = alloca ptr, align 8
  %4 = alloca ptr, align 8
  %5 = alloca ptr, align 8
  store ptr %0, ptr %3, align 8, !tbaa !5
  store ptr %1, ptr %4, align 8, !tbaa !5
  call void @llvm.lifetime.start.p0(i64 8, ptr %5) #22
  %6 = load ptr, ptr %3, align 8, !tbaa !5
  %7 = load ptr, ptr %4, align 8, !tbaa !5
  %8 = call noalias ptr @fopen(ptr noundef %6, ptr noundef %7)
  store ptr %8, ptr %5, align 8, !tbaa !15
  %9 = load ptr, ptr %5, align 8, !tbaa !15
  call void @llvm.lifetime.end.p0(i64 8, ptr %5) #22
  ret ptr %9
}

; Function Attrs: mustprogress uwtable
define dso_local i32 @stbi_write_png(ptr noundef %0, i32 noundef %1, i32 noundef %2, i32 noundef %3, ptr noundef %4, i32 noundef %5) #2 {
  %7 = alloca i32, align 4
  %8 = alloca ptr, align 8
  %9 = alloca i32, align 4
  %10 = alloca i32, align 4
  %11 = alloca i32, align 4
  %12 = alloca ptr, align 8
  %13 = alloca i32, align 4
  %14 = alloca ptr, align 8
  %15 = alloca i32, align 4
  %16 = alloca ptr, align 8
  %17 = alloca i32, align 4
  store ptr %0, ptr %8, align 8, !tbaa !5
  store i32 %1, ptr %9, align 4, !tbaa !11
  store i32 %2, ptr %10, align 4, !tbaa !11
  store i32 %3, ptr %11, align 4, !tbaa !11
  store ptr %4, ptr %12, align 8, !tbaa !10
  store i32 %5, ptr %13, align 4, !tbaa !11
  call void @llvm.lifetime.start.p0(i64 8, ptr %14) #22
  call void @llvm.lifetime.start.p0(i64 4, ptr %15) #22
  call void @llvm.lifetime.start.p0(i64 8, ptr %16) #22
  %18 = load ptr, ptr %12, align 8, !tbaa !10
  %19 = load i32, ptr %13, align 4, !tbaa !11
  %20 = load i32, ptr %9, align 4, !tbaa !11
  %21 = load i32, ptr %10, align 4, !tbaa !11
  %22 = load i32, ptr %11, align 4, !tbaa !11
  %23 = call ptr @stbi_write_png_to_mem(ptr noundef %18, i32 noundef %19, i32 noundef %20, i32 noundef %21, i32 noundef %22, ptr noundef %15)
  store ptr %23, ptr %16, align 8, !tbaa !5
  %24 = load ptr, ptr %16, align 8, !tbaa !5
  %25 = icmp eq ptr %24, null
  br i1 %25, label %26, label %27

26:                                               ; preds = %6
  store i32 0, ptr %7, align 4
  store i32 1, ptr %17, align 4
  br label %43

27:                                               ; preds = %6
  %28 = load ptr, ptr %8, align 8, !tbaa !5
  %29 = call noundef ptr @_ZL12stbiw__fopenPKcS0_(ptr noundef %28, ptr noundef @.str.84)
  store ptr %29, ptr %14, align 8, !tbaa !15
  %30 = load ptr, ptr %14, align 8, !tbaa !15
  %31 = icmp ne ptr %30, null
  br i1 %31, label %34, label %32

32:                                               ; preds = %27
  %33 = load ptr, ptr %16, align 8, !tbaa !5
  call void @free(ptr noundef %33) #22
  store i32 0, ptr %7, align 4
  store i32 1, ptr %17, align 4
  br label %43

34:                                               ; preds = %27
  %35 = load ptr, ptr %16, align 8, !tbaa !5
  %36 = load i32, ptr %15, align 4, !tbaa !11
  %37 = sext i32 %36 to i64
  %38 = load ptr, ptr %14, align 8, !tbaa !15
  %39 = call i64 @fwrite(ptr noundef %35, i64 noundef 1, i64 noundef %37, ptr noundef %38)
  %40 = load ptr, ptr %14, align 8, !tbaa !15
  %41 = call i32 @fclose(ptr noundef %40)
  %42 = load ptr, ptr %16, align 8, !tbaa !5
  call void @free(ptr noundef %42) #22
  store i32 1, ptr %7, align 4
  store i32 1, ptr %17, align 4
  br label %43

43:                                               ; preds = %34, %32, %26
  call void @llvm.lifetime.end.p0(i64 8, ptr %16) #22
  call void @llvm.lifetime.end.p0(i64 4, ptr %15) #22
  call void @llvm.lifetime.end.p0(i64 8, ptr %14) #22
  %44 = load i32, ptr %7, align 4
  ret i32 %44
}